; Function Attrs: mustprogress nounwind uwtable
define hidden void @_ZNK11XMountPoint16free_mountpointsEP18GrowableArrayCHeapIPcL8MEMFLAGS5EE(ptr nocapture noundef nonnull readnone align 8 dereferenceable(8) %0, ptr nocapture noundef %1) local_unnamed_addr #0 align 2 {
  %3 = load i32, ptr %1, align 4
  %4 = icmp eq i32 %3, 0
  br i1 %4, label %_ZN18XArrayIteratorImplIPcLb0EE4nextEPS0_.exit, label %.lr.ph.preheader

.lr.ph.preheader:                                 ; preds = %2
  %5 = getelementptr inbounds i8, ptr %1, i64 8
  %6 = load ptr, ptr %5, align 8
  %7 = sext i32 %3 to i64
  %8 = getelementptr inbounds ptr, ptr %6, i64 %7
  br label %.lr.ph

.lr.ph:                                           ; preds = %.lr.ph.preheader, %.lr.ph
  %.sroa.0.08 = phi ptr [ %10, %.lr.ph ], [ %6, %.lr.ph.preheader ]
  %9 = load ptr, ptr %.sroa.0.08, align 8
  %10 = getelementptr inbounds i8, ptr %.sroa.0.08, i64 8
  tail call void @free(ptr noundef %9) #11
  %.not = icmp eq ptr %10, %8
  br i1 %.not, label %_ZN18XArrayIteratorImplIPcLb0EE4nextEPS0_.exit, label %.lr.ph, !llvm.loop !10

_ZN18XArrayIteratorImplIPcLb0EE4nextEPS0_.exit:   ; preds = %.lr.ph, %2
  store i32 0, ptr %1, align 4
  ret void
}